; Function Attrs: mustprogress uwtable
define dso_local void @_ZN5vcpkg11MessageSink7printlnENS_5ColorERKNS_15LocalizedStringE(ptr noundef nonnull align 8 dereferenceable(8) %0, i8 noundef signext %1, ptr noundef nonnull align 8 dereferenceable(32) %2) unnamed_addr #0 align 2 personality ptr @__gxx_personality_v0 {
  %4 = alloca %"struct.vcpkg::MessageLine", align 8
  call void @llvm.lifetime.start.p0(i64 24, ptr nonnull %4) #21
  call void @llvm.memset.p0.i64(ptr noundef nonnull align 8 dereferenceable(24) %4, i8 0, i64 24, i1 false)
  %5 = tail call { ptr, i64 } @_ZNK5vcpkg15LocalizedStringcvNS_10StringViewEEv(ptr noundef nonnull align 8 dereferenceable(32) %2) #21
  %6 = extractvalue { ptr, i64 } %5, 0
  %7 = extractvalue { ptr, i64 } %5, 1
  invoke void @_ZN5vcpkg11MessageLine5printENS_5ColorENS_10StringViewE(ptr noundef nonnull align 8 dereferenceable(24) %4, i8 noundef signext %1, ptr %6, i64 %7)
          to label %8 unwind label %32

8:                                                ; preds = %3
  %9 = load ptr, ptr %0, align 8, !tbaa !30
  %10 = load ptr, ptr %9, align 8
  invoke void %10(ptr noundef nonnull align 8 dereferenceable(8) %0, ptr noundef nonnull align 8 dereferenceable(24) %4)
          to label %11 unwind label %32

11:                                               ; preds = %8
  %12 = load ptr, ptr %4, align 8, !tbaa !23
  %13 = getelementptr inbounds nuw i8, ptr %4, i64 8
  %14 = load ptr, ptr %13, align 8, !tbaa !19
  %.not4.i.i.i.i.i = icmp eq ptr %12, %14
  br i1 %.not4.i.i.i.i.i, label %_ZSt8_DestroyIPN5vcpkg18MessageLineSegmentES1_EvT_S3_RSaIT0_E.exit.i.i, label %.lr.ph.i.i.i.i.i

.lr.ph.i.i.i.i.i:                                 ; preds = %11, %_ZSt8_DestroyIN5vcpkg18MessageLineSegmentEEvPT_.exit.i.i.i.i.i
  %.05.i.i.i.i.i = phi ptr [ %24, %_ZSt8_DestroyIN5vcpkg18MessageLineSegmentEEvPT_.exit.i.i.i.i.i ], [ %12, %11 ]
  %15 = getelementptr inbounds nuw i8, ptr %.05.i.i.i.i.i, i64 8
  %16 = load ptr, ptr %15, align 8, !tbaa !15
  %17 = getelementptr inbounds nuw i8, ptr %.05.i.i.i.i.i, i64 24
  %18 = icmp eq ptr %16, %17
  br i1 %18, label %_ZNKSt7__cxx1112basic_stringIcSt11char_traitsIcESaIcEE11_M_is_localEv.exit.thread.i.i.i.i.i.i.i.i.i, label %_ZNKSt7__cxx1112basic_stringIcSt11char_traitsIcESaIcEE11_M_is_localEv.exit.i.i.i.i.i.i.i.i.i

_ZNKSt7__cxx1112basic_stringIcSt11char_traitsIcESaIcEE11_M_is_localEv.exit.thread.i.i.i.i.i.i.i.i.i: ; preds = %.lr.ph.i.i.i.i.i
  %19 = getelementptr inbounds nuw i8, ptr %.05.i.i.i.i.i, i64 16
  %20 = load i64, ptr %19, align 8, !tbaa !16
  %21 = icmp ult i64 %20, 16
  call void @llvm.assume(i1 %21)
  br label %_ZSt8_DestroyIN5vcpkg18MessageLineSegmentEEvPT_.exit.i.i.i.i.i

_ZNKSt7__cxx1112basic_stringIcSt11char_traitsIcESaIcEE11_M_is_localEv.exit.i.i.i.i.i.i.i.i.i: ; preds = %.lr.ph.i.i.i.i.i
  %22 = load i64, ptr %17, align 8, !tbaa !18
  %23 = add i64 %22, 1
  call void @_ZdlPvm(ptr noundef %16, i64 noundef %23) #22
  br label %_ZSt8_DestroyIN5vcpkg18MessageLineSegmentEEvPT_.exit.i.i.i.i.i

_ZSt8_DestroyIN5vcpkg18MessageLineSegmentEEvPT_.exit.i.i.i.i.i: ; preds = %_ZNKSt7__cxx1112basic_stringIcSt11char_traitsIcESaIcEE11_M_is_localEv.exit.i.i.i.i.i.i.i.i.i, %_ZNKSt7__cxx1112basic_stringIcSt11char_traitsIcESaIcEE11_M_is_localEv.exit.thread.i.i.i.i.i.i.i.i.i
  %24 = getelementptr inbounds nuw i8, ptr %.05.i.i.i.i.i, i64 40
  %.not.i.i.i.i.i = icmp eq ptr %24, %14
  br i1 %.not.i.i.i.i.i, label %_ZSt8_DestroyIPN5vcpkg18MessageLineSegmentES1_EvT_S3_RSaIT0_E.exitthread-pre-split.i.i, label %.lr.ph.i.i.i.i.i, !llvm.loop !24

_ZSt8_DestroyIPN5vcpkg18MessageLineSegmentES1_EvT_S3_RSaIT0_E.exitthread-pre-split.i.i: ; preds = %_ZSt8_DestroyIN5vcpkg18MessageLineSegmentEEvPT_.exit.i.i.i.i.i
  %.pr.i.i = load ptr, ptr %4, align 8, !tbaa !23
  br label %_ZSt8_DestroyIPN5vcpkg18MessageLineSegmentES1_EvT_S3_RSaIT0_E.exit.i.i

_ZSt8_DestroyIPN5vcpkg18MessageLineSegmentES1_EvT_S3_RSaIT0_E.exit.i.i: ; preds = %_ZSt8_DestroyIPN5vcpkg18MessageLineSegmentES1_EvT_S3_RSaIT0_E.exitthread-pre-split.i.i, %11
  %25 = phi ptr [ %.pr.i.i, %_ZSt8_DestroyIPN5vcpkg18MessageLineSegmentES1_EvT_S3_RSaIT0_E.exitthread-pre-split.i.i ], [ %12, %11 ]
  %.not.i.i.i.i = icmp eq ptr %25, null
  br i1 %.not.i.i.i.i, label %_ZN5vcpkg11MessageLineD2Ev.exit, label %26

26:                                               ; preds = %_ZSt8_DestroyIPN5vcpkg18MessageLineSegmentES1_EvT_S3_RSaIT0_E.exit.i.i
  %27 = getelementptr inbounds nuw i8, ptr %4, i64 16
  %28 = load ptr, ptr %27, align 8, !tbaa !22
  %29 = ptrtoint ptr %28 to i64
  %30 = ptrtoint ptr %25 to i64
  %31 = sub i64 %29, %30
  call void @_ZdlPvm(ptr noundef nonnull %25, i64 noundef %31) #22
  br label %_ZN5vcpkg11MessageLineD2Ev.exit

_ZN5vcpkg11MessageLineD2Ev.exit:                  ; preds = %_ZSt8_DestroyIPN5vcpkg18MessageLineSegmentES1_EvT_S3_RSaIT0_E.exit.i.i, %26
  call void @llvm.lifetime.end.p0(i64 24, ptr nonnull %4) #21
  ret void

32:                                               ; preds = %8, %3
  %33 = landingpad { ptr, i32 }
          cleanup
  call void @_ZN5vcpkg11MessageLineD2Ev(ptr noundef nonnull align 8 dereferenceable(24) %4) #21
  call void @llvm.lifetime.end.p0(i64 24, ptr nonnull %4) #21
  resume { ptr, i32 } %33
}